; Function Attrs: mustprogress uwtable
define dso_local void @_ZN4absl18container_internal28SetHashtablezSampleParameterEi(i32 noundef %0) local_unnamed_addr #0 {
  %2 = icmp sgt i32 %0, 0
  br i1 %2, label %3, label %4

3:                                                ; preds = %1
  store atomic i32 %0, ptr @_ZN4absl18container_internal12_GLOBAL__N_129g_hashtablez_sample_parameterE.0 release, align 4
  br label %_ZN4absl18container_internal36SetHashtablezSampleParameterInternalEi.exit

4:                                                ; preds = %1
  %5 = sext i32 %0 to i64
  tail call void (i32, ptr, i32, ptr, ...) @_ZN4absl16raw_log_internal6RawLogENS_11LogSeverityEPKciS3_z(i32 noundef 2, ptr noundef nonnull getelementptr inbounds nuw (i8, ptr @.str, i64 123), i32 noundef 297, ptr noundef nonnull @.str.1, i64 noundef %5)
  br label %_ZN4absl18container_internal36SetHashtablezSampleParameterInternalEi.exit

_ZN4absl18container_internal36SetHashtablezSampleParameterInternalEi.exit: ; preds = %3, %4
  %6 = load atomic i64, ptr @_ZN4absl18container_internal12_GLOBAL__N_128g_hashtablez_config_listenerE.0 acquire, align 8
  %.not.i = icmp eq i64 %6, 0
  br i1 %.not.i, label %_ZN4absl18container_internal12_GLOBAL__N_131TriggerHashtablezConfigListenerEv.exit, label %7

7:                                                ; preds = %_ZN4absl18container_internal36SetHashtablezSampleParameterInternalEi.exit
  %.0.i.i.i = inttoptr i64 %6 to ptr
  tail call void %.0.i.i.i()
  br label %_ZN4absl18container_internal12_GLOBAL__N_131TriggerHashtablezConfigListenerEv.exit

_ZN4absl18container_internal12_GLOBAL__N_131TriggerHashtablezConfigListenerEv.exit: ; preds = %_ZN4absl18container_internal36SetHashtablezSampleParameterInternalEi.exit, %7
  ret void
}